; Function Attrs: mustprogress nofree norecurse nosync nounwind willreturn memory(read, inaccessiblemem: none) uwtable
define internal noundef nonnull ptr @_ZNK19OpenColorIO_v2_4dev12_GLOBAL__N_111GammaWriter10getTagNameEv(ptr noundef nonnull readonly align 8 dereferenceable(56) %this) unnamed_addr #14 align 2 {
entry:
  %m_version = getelementptr inbounds i8, ptr %this, i64 24
  %cmp.i = icmp eq ptr %m_version, @_ZN19OpenColorIO_v2_4devL28CTF_PROCESS_LIST_VERSION_2_0E
  br i1 %cmp.i, label %_ZNK19OpenColorIO_v2_4dev10CTFVersionltERKS0_.exit.thread, label %if.end.i

if.end.i:                                         ; preds = %entry
  %0 = load i32, ptr %m_version, align 8
  %1 = load i32, ptr @_ZN19OpenColorIO_v2_4devL28CTF_PROCESS_LIST_VERSION_2_0E, align 8
  %cmp3.i = icmp ult i32 %0, %1
  br i1 %cmp3.i, label %_ZNK19OpenColorIO_v2_4dev10CTFVersionltERKS0_.exit.thread4, label %if.else.i

if.else.i:                                        ; preds = %if.end.i
  %cmp7.i = icmp ugt i32 %0, %1
  br i1 %cmp7.i, label %_ZNK19OpenColorIO_v2_4dev10CTFVersionltERKS0_.exit.thread, label %if.else9.i

if.else9.i:                                       ; preds = %if.else.i
  %m_minor.i = getelementptr inbounds i8, ptr %this, i64 28
  %2 = load i32, ptr %m_minor.i, align 4
  %3 = load i32, ptr getelementptr inbounds (%"class.OpenColorIO_v2_4dev::CTFVersion", ptr @_ZN19OpenColorIO_v2_4devL28CTF_PROCESS_LIST_VERSION_2_0E, i64 0, i32 1), align 4
  %cmp11.i = icmp ult i32 %2, %3
  br i1 %cmp11.i, label %_ZNK19OpenColorIO_v2_4dev10CTFVersionltERKS0_.exit.thread4, label %if.else13.i

if.else13.i:                                      ; preds = %if.else9.i
  %cmp16.i = icmp ugt i32 %2, %3
  br i1 %cmp16.i, label %_ZNK19OpenColorIO_v2_4dev10CTFVersionltERKS0_.exit.thread, label %_ZNK19OpenColorIO_v2_4dev10CTFVersionltERKS0_.exit

_ZNK19OpenColorIO_v2_4dev10CTFVersionltERKS0_.exit: ; preds = %if.else13.i
  %m_revision.i = getelementptr inbounds i8, ptr %this, i64 32
  %4 = load i32, ptr %m_revision.i, align 8
  %5 = load i32, ptr getelementptr inbounds (%"class.OpenColorIO_v2_4dev::CTFVersion", ptr @_ZN19OpenColorIO_v2_4devL28CTF_PROCESS_LIST_VERSION_2_0E, i64 0, i32 2), align 8
  %cmp20.i = icmp ult i32 %4, %5
  %cond.fr = freeze i1 %cmp20.i
  br i1 %cond.fr, label %_ZNK19OpenColorIO_v2_4dev10CTFVersionltERKS0_.exit.thread4, label %_ZNK19OpenColorIO_v2_4dev10CTFVersionltERKS0_.exit.thread

_ZNK19OpenColorIO_v2_4dev10CTFVersionltERKS0_.exit.thread4: ; preds = %if.else9.i, %if.end.i, %_ZNK19OpenColorIO_v2_4dev10CTFVersionltERKS0_.exit
  br label %_ZNK19OpenColorIO_v2_4dev10CTFVersionltERKS0_.exit.thread

_ZNK19OpenColorIO_v2_4dev10CTFVersionltERKS0_.exit.thread: ; preds = %if.else13.i, %if.else.i, %entry, %_ZNK19OpenColorIO_v2_4dev10CTFVersionltERKS0_.exit, %_ZNK19OpenColorIO_v2_4dev10CTFVersionltERKS0_.exit.thread4
  %6 = phi ptr [ @_ZN19OpenColorIO_v2_4devL9TAG_GAMMAE, %_ZNK19OpenColorIO_v2_4dev10CTFVersionltERKS0_.exit.thread4 ], [ @_ZN19OpenColorIO_v2_4devL12TAG_EXPONENTE, %_ZNK19OpenColorIO_v2_4dev10CTFVersionltERKS0_.exit ], [ @_ZN19OpenColorIO_v2_4devL12TAG_EXPONENTE, %entry ], [ @_ZN19OpenColorIO_v2_4devL12TAG_EXPONENTE, %if.else.i ], [ @_ZN19OpenColorIO_v2_4devL12TAG_EXPONENTE, %if.else13.i ]
  ret ptr %6
}